; Function Attrs: nofree norecurse nosync nounwind memory(read, inaccessiblemem: none) uwtable
define i32 @Gia_ManCountRefs(ptr noundef readonly captures(none) %0, ptr noundef readonly captures(none) %1) local_unnamed_addr #11 {
  %3 = getelementptr i8, ptr %1, i64 4
  %.val9 = load i32, ptr %3, align 4, !tbaa !89
  %4 = icmp sgt i32 %.val9, 0
  br i1 %4, label %.lr.ph, label %.critedge

.lr.ph:                                           ; preds = %2
  %5 = getelementptr i8, ptr %1, i64 8
  %.val = load ptr, ptr %5, align 8, !tbaa !36
  %6 = getelementptr i8, ptr %0, i64 144
  %.val10 = load ptr, ptr %6, align 8, !tbaa !159
  %wide.trip.count = zext nneg i32 %.val9 to i64
  br label %7

7:                                                ; preds = %.lr.ph, %7
  %indvars.iv = phi i64 [ 0, %.lr.ph ], [ %indvars.iv.next, %7 ]
  %.012 = phi i32 [ 0, %.lr.ph ], [ %13, %7 ]
  %8 = getelementptr inbounds nuw i32, ptr %.val, i64 %indvars.iv
  %9 = load i32, ptr %8, align 4, !tbaa !37
  %10 = sext i32 %9 to i64
  %11 = getelementptr inbounds i32, ptr %.val10, i64 %10
  %12 = load i32, ptr %11, align 4, !tbaa !37
  %13 = add nsw i32 %12, %.012
  %indvars.iv.next = add nuw nsw i64 %indvars.iv, 1
  %exitcond.not = icmp eq i64 %indvars.iv.next, %wide.trip.count
  br i1 %exitcond.not, label %.critedge, label %7, !llvm.loop !160

.critedge:                                        ; preds = %7, %2
  %.0.lcssa = phi i32 [ 0, %2 ], [ %13, %7 ]
  ret i32 %.0.lcssa
}